target datalayout = "e-m:e-p270:32:32-p271:32:32-p272:64:64-i64:64-i128:128-f80:128-n8:16:32:64-S128"
target triple = "x86_64-pc-linux-gnu"

%struct.redisServer = type { i32, i64, ptr, ptr, ptr, i32, i32, i32, i32, i32, ptr, ptr, ptr, ptr, ptr, i32, i32, i32, i32, i64, i32, i32, i32, i32, ptr, i32, i32, [41 x i8], i32, i64, i32, i32, i32, ptr, ptr, i32, i32, i64, ptr, ptr, ptr, ptr, [2 x i32], i32, i32, i32, i32, i32, i32, [16 x ptr], i32, ptr, ptr, i32, [8 x %struct.connListener], i32, %struct.connListener, ptr, ptr, ptr, ptr, ptr, ptr, ptr, ptr, ptr, ptr, i32, ptr, i32, ptr, [3 x %struct.pause_event], [256 x i8], ptr, i64, i32, i32, [128 x i32], i32, i32, i64, i32, i32, i32, i32, i32, i64, i64, i64, i64, i64, i64, i64, i64, i64, i64, double, i64, i64, i64, i64, i64, i64, i64, i64, i64, i64, i64, i64, i64, i64, i64, i64, i64, i64, i64, i64, i64, double, i64, i64, i64, i64, i64, ptr, i64, i64, i64, %struct.malloc_stats, i64, i64, i64, i64, i64, i64, i64, i64, i64, i64, i64, i64, double, [4 x i64], i64, i64, i64, i64, [128 x i64], [128 x i64], i64, i64, [7 x %struct.anon], i64, i64, i64, i64, i64, i64, [4 x %struct.durationStats], i32, i32, i32, i32, i32, i32, i32, i32, i32, i32, i32, i32, i64, i32, i32, i32, i32, i64, i64, i32, i32, i32, i32, i32, ptr, [3 x %struct.clientBufferLimitsConfig], i32, i32, i32, ptr, i32, i32, i32, i32, i32, i32, ptr, ptr, i32, i32, i64, i64, i64, i64, i64, i32, i32, ptr, i32, i32, i64, i64, i64, i64, i64, i32, i32, i64, i32, i32, i32, i32, i32, i32, i32, i32, ptr, i32, i64, i64, i64, i64, i32, ptr, i32, ptr, i32, i32, i32, i64, i64, i64, i64, i32, i32, i32, i32, i32, i32, ptr, i32, i32, ptr, i32, i32, i32, [2 x i32], i32, %struct.redisOpArray, i32, ptr, i32, ptr, i32, i32, i32, i32, i32, i32, i32, [41 x i8], [41 x i8], i64, i64, i64, i64, i32, i32, ptr, i64, i64, %struct.replDataBuf, i64, i64, i32, i32, i32, i32, i32, i32, i32, i32, i32, i64, ptr, i64, ptr, ptr, ptr, i32, i32, ptr, ptr, i32, i32, i32, i64, i64, i64, i64, ptr, ptr, i32, ptr, i64, i32, i32, i32, i64, i32, i32, i32, i32, ptr, i32, i32, [41 x i8], i64, i32, ptr, i32, i32, i64, i64, i32, i32, i32, i32, i32, i64, [3 x i32], i32, i32, i32, [10 x i32], ptr, ptr, i32, i64, ptr, ptr, i32, i32, i32, i32, i64, i64, i64, i64, i64, i64, i64, i64, i64, i64, i32, i32, i64, i64, i32, i64, i64, i64, i64, i64, ptr, ptr, i32, ptr, i32, i32, i32, i32, i64, i64, ptr, ptr, i32, i32, i32, i32, i32, ptr, ptr, ptr, i32, i32, i32, i32, i32, i32, i32, i64, i32, i32, i64, i32, i32, i32, i32, i32, i32, i32, i64, ptr, ptr, i64, ptr, i32, %struct.aclInfo, i32, i64, i32, i32, i32, %struct.redisTLSContextConfig, ptr, ptr, ptr, ptr, ptr, i64, i32, ptr, i32, i32, i32, i64, i32, ptr }
%struct.connListener = type { [16 x i32], i32, ptr, i32, i32, ptr, ptr }
%struct.pause_event = type { i32, i64 }
%struct.malloc_stats = type { i64, i64, i64, i64, i64, i64, i64, i64, i64, i64, i64 }
%struct.anon = type { i64, i64, [16 x i64], i32 }
%struct.durationStats = type { i64, i64, i64 }
%struct.clientBufferLimitsConfig = type { i64, i64, i64 }
%struct.redisOpArray = type { ptr, i32, i32 }
%struct.replDataBuf = type { ptr, i64, i64, i64, i64 }
%struct.aclInfo = type { i64, i64, i64, i64 }
%struct.redisTLSContextConfig = type { ptr, ptr, ptr, ptr, ptr, ptr, ptr, ptr, ptr, ptr, ptr, ptr, i32, i32, i32, i32 }
%struct.child_info_data = type { i64, i64, i64, double, i32 }

@server = external global %struct.redisServer, align 8
@readChildInfo.buffer = internal global %struct.child_info_data zeroinitializer, align 8

; Function Attrs: nounwind uwtable
define dso_local void @updateChildInfo(i32 noundef %0, i64 noundef %1, i64 noundef %2, i64 noundef %3, double noundef %4) #0 {
  %6 = alloca i32, align 4
  %7 = alloca i64, align 8
  %8 = alloca i64, align 8
  %9 = alloca i64, align 8
  %10 = alloca double, align 8
  store i32 %0, ptr %6, align 4, !tbaa !38
  store i64 %1, ptr %7, align 8, !tbaa !39
  store i64 %2, ptr %8, align 8, !tbaa !39
  store i64 %3, ptr %9, align 8, !tbaa !39
  store double %4, ptr %10, align 8, !tbaa !40
  %11 = load i64, ptr %7, align 8, !tbaa !39
  %12 = load i64, ptr getelementptr inbounds nuw (%struct.redisServer, ptr @server, i32 0, i32 133), align 8, !tbaa !51
  %13 = icmp ugt i64 %11, %12
  br i1 %13, label %14, label %16

14:                                               ; preds = %5
  %15 = load i64, ptr %7, align 8, !tbaa !39
  store i64 %15, ptr getelementptr inbounds nuw (%struct.redisServer, ptr @server, i32 0, i32 133), align 8, !tbaa !51
  br label %16

16:                                               ; preds = %14, %5
  %17 = load i32, ptr %6, align 4, !tbaa !38
  %18 = icmp eq i32 %17, 0
  br i1 %18, label %19, label %28

19:                                               ; preds = %16
  %20 = load i64, ptr %7, align 8, !tbaa !39
  store i64 %20, ptr getelementptr inbounds nuw (%struct.redisServer, ptr @server, i32 0, i32 134), align 8, !tbaa !52
  %21 = load i64, ptr %8, align 8, !tbaa !39
  store i64 %21, ptr getelementptr inbounds nuw (%struct.redisServer, ptr @server, i32 0, i32 135), align 8, !tbaa !53
  %22 = load i64, ptr %9, align 8, !tbaa !39
  store i64 %22, ptr getelementptr inbounds nuw (%struct.redisServer, ptr @server, i32 0, i32 136), align 8, !tbaa !54
  %23 = load double, ptr %10, align 8, !tbaa !40
  %24 = fcmp une double %23, -1.000000e+00
  br i1 %24, label %25, label %27

25:                                               ; preds = %19
  %26 = load double, ptr %10, align 8, !tbaa !40
  store double %26, ptr getelementptr inbounds nuw (%struct.redisServer, ptr @server, i32 0, i32 141), align 8, !tbaa !55
  br label %27

27:                                               ; preds = %25, %19
  br label %46

28:                                               ; preds = %16
  %29 = load i32, ptr %6, align 4, !tbaa !38
  %30 = icmp eq i32 %29, 1
  br i1 %30, label %31, label %33

31:                                               ; preds = %28
  %32 = load i64, ptr getelementptr inbounds nuw (%struct.redisServer, ptr @server, i32 0, i32 133), align 8, !tbaa !51
  store i64 %32, ptr getelementptr inbounds nuw (%struct.redisServer, ptr @server, i32 0, i32 139), align 8, !tbaa !56
  br label %45

33:                                               ; preds = %28
  %34 = load i32, ptr %6, align 4, !tbaa !38
  %35 = icmp eq i32 %34, 2
  br i1 %35, label %36, label %38

36:                                               ; preds = %33
  %37 = load i64, ptr getelementptr inbounds nuw (%struct.redisServer, ptr @server, i32 0, i32 133), align 8, !tbaa !51
  store i64 %37, ptr getelementptr inbounds nuw (%struct.redisServer, ptr @server, i32 0, i32 138), align 8, !tbaa !57
  br label %44

38:                                               ; preds = %33
  %39 = load i32, ptr %6, align 4, !tbaa !38
  %40 = icmp eq i32 %39, 3
  br i1 %40, label %41, label %43

41:                                               ; preds = %38
  %42 = load i64, ptr getelementptr inbounds nuw (%struct.redisServer, ptr @server, i32 0, i32 133), align 8, !tbaa !51
  store i64 %42, ptr getelementptr inbounds nuw (%struct.redisServer, ptr @server, i32 0, i32 140), align 8, !tbaa !58
  br label %43

43:                                               ; preds = %41, %38
  br label %44

44:                                               ; preds = %43, %36
  br label %45

45:                                               ; preds = %44, %31
  br label %46

46:                                               ; preds = %45, %27
  ret void
}

; Function Attrs: nounwind uwtable
define dso_local i32 @readChildInfo(ptr noundef %0, ptr noundef %1, ptr noundef %2, ptr noundef %3, ptr noundef %4) #0 {
  %6 = alloca i32, align 4
  %7 = alloca ptr, align 8
  %8 = alloca ptr, align 8
  %9 = alloca ptr, align 8
  %10 = alloca ptr, align 8
  %11 = alloca ptr, align 8
  %12 = alloca i64, align 8
  %13 = alloca i32, align 4
  %14 = alloca i32, align 4
  store ptr %0, ptr %7, align 8, !tbaa !42
  store ptr %1, ptr %8, align 8, !tbaa !59
  store ptr %2, ptr %9, align 8, !tbaa !59
  store ptr %3, ptr %10, align 8, !tbaa !59
  store ptr %4, ptr %11, align 8, !tbaa !61
  call void @llvm.lifetime.start.p0(i64 8, ptr %12) #6
  store i64 40, ptr %12, align 8, !tbaa !39
  %15 = load i32, ptr getelementptr inbounds nuw (%struct.redisServer, ptr @server, i32 0, i32 256), align 4, !tbaa !5
  %16 = sext i32 %15 to i64
  %17 = load i64, ptr %12, align 8, !tbaa !39
  %18 = icmp eq i64 %16, %17
  br i1 %18, label %19, label %20

19:                                               ; preds = %5
  store i32 0, ptr getelementptr inbounds nuw (%struct.redisServer, ptr @server, i32 0, i32 256), align 4, !tbaa !5
  br label %20

20:                                               ; preds = %19, %5
  call void @llvm.lifetime.start.p0(i64 4, ptr %13) #6
  %21 = load i32, ptr getelementptr inbounds nuw (%struct.redisServer, ptr @server, i32 0, i32 255), align 4, !tbaa !38
  %22 = load i32, ptr getelementptr inbounds nuw (%struct.redisServer, ptr @server, i32 0, i32 256), align 4, !tbaa !5
  %23 = sext i32 %22 to i64
  %24 = getelementptr inbounds i8, ptr @readChildInfo.buffer, i64 %23
  %25 = load i64, ptr %12, align 8, !tbaa !39
  %26 = load i32, ptr getelementptr inbounds nuw (%struct.redisServer, ptr @server, i32 0, i32 256), align 4, !tbaa !5
  %27 = sext i32 %26 to i64
  %28 = sub nsw i64 %25, %27
  %29 = call i64 @read(i32 noundef %21, ptr noundef %24, i64 noundef %28)
  %30 = trunc i64 %29 to i32
  store i32 %30, ptr %13, align 4, !tbaa !38
  %31 = load i32, ptr %13, align 4, !tbaa !38
  %32 = icmp sgt i32 %31, 0
  br i1 %32, label %33, label %37

33:                                               ; preds = %20
  %34 = load i32, ptr %13, align 4, !tbaa !38
  %35 = load i32, ptr getelementptr inbounds nuw (%struct.redisServer, ptr @server, i32 0, i32 256), align 4, !tbaa !5
  %36 = add nsw i32 %35, %34
  store i32 %36, ptr getelementptr inbounds nuw (%struct.redisServer, ptr @server, i32 0, i32 256), align 4, !tbaa !5
  br label %37

37:                                               ; preds = %33, %20
  %38 = load i32, ptr getelementptr inbounds nuw (%struct.redisServer, ptr @server, i32 0, i32 256), align 4, !tbaa !5
  %39 = sext i32 %38 to i64
  %40 = load i64, ptr %12, align 8, !tbaa !39
  %41 = icmp eq i64 %39, %40
  br i1 %41, label %42, label %53

42:                                               ; preds = %37
  %43 = load i32, ptr getelementptr inbounds nuw (%struct.child_info_data, ptr @readChildInfo.buffer, i32 0, i32 4), align 8, !tbaa !45
  %44 = load ptr, ptr %7, align 8, !tbaa !42
  store i32 %43, ptr %44, align 4, !tbaa !38
  %45 = load i64, ptr getelementptr inbounds nuw (%struct.child_info_data, ptr @readChildInfo.buffer, i32 0, i32 1), align 8, !tbaa !48
  %46 = load ptr, ptr %8, align 8, !tbaa !59
  store i64 %45, ptr %46, align 8, !tbaa !39
  %47 = load i64, ptr getelementptr inbounds nuw (%struct.child_info_data, ptr @readChildInfo.buffer, i32 0, i32 2), align 8, !tbaa !49
  %48 = load ptr, ptr %9, align 8, !tbaa !59
  store i64 %47, ptr %48, align 8, !tbaa !39
  %49 = load i64, ptr @readChildInfo.buffer, align 8, !tbaa !47
  %50 = load ptr, ptr %10, align 8, !tbaa !59
  store i64 %49, ptr %50, align 8, !tbaa !39
  %51 = load double, ptr getelementptr inbounds nuw (%struct.child_info_data, ptr @readChildInfo.buffer, i32 0, i32 3), align 8, !tbaa !50
  %52 = load ptr, ptr %11, align 8, !tbaa !61
  store double %51, ptr %52, align 8, !tbaa !40
  store i32 1, ptr %6, align 4
  store i32 1, ptr %14, align 4
  br label %54

53:                                               ; preds = %37
  store i32 0, ptr %6, align 4
  store i32 1, ptr %14, align 4
  br label %54

54:                                               ; preds = %53, %42
  call void @llvm.lifetime.end.p0(i64 4, ptr %13) #6
  call void @llvm.lifetime.end.p0(i64 8, ptr %12) #6
  %55 = load i32, ptr %6, align 4
  ret i32 %55
}

; Function Attrs: nounwind uwtable
define dso_local void @receiveChildInfo() #0 {
  %1 = alloca i64, align 8
  %2 = alloca i64, align 8
  %3 = alloca i64, align 8
  %4 = alloca double, align 8
  %5 = alloca i32, align 4
  %6 = load i32, ptr getelementptr inbounds nuw (%struct.redisServer, ptr @server, i32 0, i32 255), align 4, !tbaa !38
  %7 = icmp eq i32 %6, -1
  br i1 %7, label %8, label %9

8:                                                ; preds = %0
  br label %20

9:                                                ; preds = %0
  call void @llvm.lifetime.start.p0(i64 8, ptr %1) #6
  call void @llvm.lifetime.start.p0(i64 8, ptr %2) #6
  call void @llvm.lifetime.start.p0(i64 8, ptr %3) #6
  call void @llvm.lifetime.start.p0(i64 8, ptr %4) #6
  call void @llvm.lifetime.start.p0(i64 4, ptr %5) #6
  br label %10

10:                                               ; preds = %13, %9
  %11 = call i32 @readChildInfo(ptr noundef %5, ptr noundef %1, ptr noundef %2, ptr noundef %3, ptr noundef %4)
  %12 = icmp ne i32 %11, 0
  br i1 %12, label %13, label %19

13:                                               ; preds = %10
  %14 = load i32, ptr %5, align 4, !tbaa !38
  %15 = load i64, ptr %1, align 8, !tbaa !39
  %16 = load i64, ptr %2, align 8, !tbaa !39
  %17 = load i64, ptr %3, align 8, !tbaa !39
  %18 = load double, ptr %4, align 8, !tbaa !40
  call void @updateChildInfo(i32 noundef %14, i64 noundef %15, i64 noundef %16, i64 noundef %17, double noundef %18)
  br label %10, !llvm.loop !62

19:                                               ; preds = %10
  call void @llvm.lifetime.end.p0(i64 4, ptr %5) #6
  call void @llvm.lifetime.end.p0(i64 8, ptr %4) #6
  call void @llvm.lifetime.end.p0(i64 8, ptr %3) #6
  call void @llvm.lifetime.end.p0(i64 8, ptr %2) #6
  call void @llvm.lifetime.end.p0(i64 8, ptr %1) #6
  br label %20

20:                                               ; preds = %19, %8
  ret void
}