; Function Attrs: nofree nounwind uwtable
define dso_local void @receiveChildInfo() local_unnamed_addr #7 {
  %1 = load i32, ptr getelementptr inbounds nuw (i8, ptr @server, i64 6892), align 4, !tbaa !5
  %2 = icmp eq i32 %1, -1
  br i1 %2, label %.loopexit, label %.preheader.preheader

.preheader.preheader:                             ; preds = %0
  %.pre = load i32, ptr getelementptr inbounds nuw (i8, ptr @server, i64 6900), align 4, !tbaa !9
  br label %.preheader

.preheader:                                       ; preds = %.preheader.backedge, %.preheader.preheader
  %3 = phi i32 [ %.pre, %.preheader.preheader ], [ 40, %.preheader.backedge ]
  %4 = icmp eq i32 %3, 40
  br i1 %4, label %5, label %6

5:                                                ; preds = %.preheader
  store i32 0, ptr getelementptr inbounds nuw (i8, ptr @server, i64 6900), align 4, !tbaa !9
  br label %6

6:                                                ; preds = %5, %.preheader
  %7 = phi i32 [ 0, %5 ], [ %3, %.preheader ]
  %8 = load i32, ptr getelementptr inbounds nuw (i8, ptr @server, i64 6892), align 4, !tbaa !5
  %9 = sext i32 %7 to i64
  %10 = getelementptr inbounds i8, ptr @readChildInfo.buffer, i64 %9
  %11 = sub nsw i64 40, %9
  %12 = tail call i64 @read(i32 noundef %8, ptr noundef nonnull %10, i64 noundef %11) #8
  %13 = trunc i64 %12 to i32
  %14 = icmp sgt i32 %13, 0
  %15 = load i32, ptr getelementptr inbounds nuw (i8, ptr @server, i64 6900), align 4, !tbaa !9
  br i1 %14, label %16, label %thread-pre-split.i

16:                                               ; preds = %6
  %17 = add nsw i32 %15, %13
  store i32 %17, ptr getelementptr inbounds nuw (i8, ptr @server, i64 6900), align 4, !tbaa !9
  br label %thread-pre-split.i

thread-pre-split.i:                               ; preds = %16, %6
  %18 = phi i32 [ %17, %16 ], [ %15, %6 ]
  %19 = icmp eq i32 %18, 40
  br i1 %19, label %20, label %.loopexit

20:                                               ; preds = %thread-pre-split.i
  %21 = load i32, ptr getelementptr inbounds nuw (i8, ptr @readChildInfo.buffer, i64 32), align 8, !tbaa !43
  %22 = load i64, ptr getelementptr inbounds nuw (i8, ptr @readChildInfo.buffer, i64 8), align 8, !tbaa !46
  %23 = load i64, ptr getelementptr inbounds nuw (i8, ptr @readChildInfo.buffer, i64 16), align 8, !tbaa !47
  %24 = load i64, ptr @readChildInfo.buffer, align 8, !tbaa !45
  %25 = load double, ptr getelementptr inbounds nuw (i8, ptr @readChildInfo.buffer, i64 24), align 8, !tbaa !48
  %26 = load i64, ptr getelementptr inbounds nuw (i8, ptr @server, i64 2880), align 8, !tbaa !49
  %27 = icmp ugt i64 %22, %26
  br i1 %27, label %28, label %29

28:                                               ; preds = %20
  store i64 %22, ptr getelementptr inbounds nuw (i8, ptr @server, i64 2880), align 8, !tbaa !49
  br label %29

29:                                               ; preds = %28, %20
  %30 = phi i64 [ %22, %28 ], [ %26, %20 ]
  switch i32 %21, label %.preheader.backedge [
    i32 0, label %31
    i32 1, label %34
    i32 2, label %35
    i32 3, label %36
  ]

.preheader.backedge:                              ; preds = %29, %31, %33, %34, %35, %36
  br label %.preheader, !llvm.loop !58

31:                                               ; preds = %29
  store i64 %22, ptr getelementptr inbounds nuw (i8, ptr @server, i64 2888), align 8, !tbaa !50
  store i64 %23, ptr getelementptr inbounds nuw (i8, ptr @server, i64 2896), align 8, !tbaa !51
  store i64 %24, ptr getelementptr inbounds nuw (i8, ptr @server, i64 2904), align 8, !tbaa !52
  %32 = fcmp une double %25, -1.000000e+00
  br i1 %32, label %33, label %.preheader.backedge

33:                                               ; preds = %31
  store double %25, ptr getelementptr inbounds nuw (i8, ptr @server, i64 2944), align 8, !tbaa !53
  br label %.preheader.backedge

34:                                               ; preds = %29
  store i64 %30, ptr getelementptr inbounds nuw (i8, ptr @server, i64 2928), align 8, !tbaa !54
  br label %.preheader.backedge

35:                                               ; preds = %29
  store i64 %30, ptr getelementptr inbounds nuw (i8, ptr @server, i64 2920), align 8, !tbaa !55
  br label %.preheader.backedge

36:                                               ; preds = %29
  store i64 %30, ptr getelementptr inbounds nuw (i8, ptr @server, i64 2936), align 8, !tbaa !56
  br label %.preheader.backedge

.loopexit:                                        ; preds = %thread-pre-split.i, %0
  ret void
}